target datalayout = "e-m:e-p270:32:32-p271:32:32-p272:64:64-i64:64-i128:128-f80:128-n8:16:32:64-S128"
target triple = "x86_64-pc-linux-gnu"

%struct.H5AC_proxy_entry_t = type { %struct.H5C_cache_entry_t, i64, ptr, i64, i64, i64 }
%struct.H5C_cache_entry_t = type { ptr, i64, i64, ptr, i8, ptr, i8, i8, i8, i8, i32, i8, i8, i8, i8, i8, i32, ptr, i32, i32, i32, i32, i32, i8, i8, ptr, ptr, ptr, ptr, ptr, ptr, i8, i32, i8, i64, ptr, i64, i64, i32, i8, i32, i32, i8, ptr, ptr, ptr }

@H5AC_init_g = external global i8, align 1
@H5_libterm_g = external global i8, align 1
@.str.1 = private unnamed_addr constant [109 x i8] c"generated/home/dtcxzyw/WorkSpace/Projects/compilers/llvm-opt-benchmark/bench/hdf5/hdf5/src/H5ACproxy_entry.c\00", align 1
@H5E_FUNC_g = external global i64, align 8
@H5E_CANTINIT_g = external global i64, align 8
@.str.2 = private unnamed_addr constant [32 x i8] c"interface initialization failed\00", align 1
@H5E_CACHE_g = external global i64, align 8
@H5E_CANTREMOVE_g = external global i64, align 8
@H5E_CANTUNDEPEND_g = external global i64, align 8
@.str.10 = private unnamed_addr constant [49 x i8] c"unable to remove flush dependency on proxy entry\00", align 1
@H5E_BADITER_g = external global i64, align 8
@.str.14 = private unnamed_addr constant [20 x i8] c"can't visit parents\00", align 1
@__func__.H5AC_proxy_entry_remove_child = private unnamed_addr constant [30 x i8] c"H5AC_proxy_entry_remove_child\00", align 1
@H5E_CANTUNPIN_g = external global i64, align 8
@.str.15 = private unnamed_addr constant [24 x i8] c"can't unpin proxy entry\00", align 1
@.str.16 = private unnamed_addr constant [29 x i8] c"unable to remove proxy entry\00", align 1

; Function Attrs: nounwind uwtable
define i32 @H5AC_proxy_entry_remove_child(ptr noundef %0, ptr noundef %1) #0 {
  %3 = alloca ptr, align 8
  %4 = alloca ptr, align 8
  %5 = alloca i32, align 4
  %6 = alloca i8, align 1
  store ptr %0, ptr %3, align 8, !tbaa !19
  store ptr %1, ptr %4, align 8, !tbaa !3
  call void @llvm.lifetime.start.p0(i64 4, ptr %5) #4
  store i32 0, ptr %5, align 4, !tbaa !17
  call void @llvm.lifetime.start.p0(i64 1, ptr %6) #4
  store i8 0, ptr %6, align 1, !tbaa !9
  %7 = load i8, ptr @H5AC_init_g, align 1, !tbaa !9, !range !11, !noundef !12
  %8 = trunc i8 %7 to i1
  br i1 %8, label %13, label %9

9:                                                ; preds = %2
  %10 = load i8, ptr @H5_libterm_g, align 1, !tbaa !9, !range !11, !noundef !12
  %11 = trunc i8 %10 to i1
  %12 = xor i1 %11, true
  br label %13

13:                                               ; preds = %9, %2
  %14 = phi i1 [ false, %2 ], [ %12, %9 ]
  %15 = xor i1 %14, true
  %16 = xor i1 %15, true
  %17 = zext i1 %16 to i32
  %18 = sext i32 %17 to i64
  %19 = call i64 @llvm.expect.i64(i64 %18, i64 0)
  %20 = icmp ne i64 %19, 0
  br i1 %20, label %21, label %44

21:                                               ; preds = %13
  store i8 1, ptr @H5AC_init_g, align 1, !tbaa !9
  %22 = call i32 @H5AC__init_package()
  %23 = icmp slt i32 %22, 0
  br i1 %23, label %24, label %43

24:                                               ; preds = %21
  store i8 0, ptr @H5AC_init_g, align 1, !tbaa !9
  br label %25

25:                                               ; preds = %24
  br label %26

26:                                               ; preds = %25
  br label %27

27:                                               ; preds = %26
  %28 = load i64, ptr @H5E_FUNC_g, align 8, !tbaa !13
  %29 = load i64, ptr @H5E_CANTINIT_g, align 8, !tbaa !13
  %30 = call i32 (ptr, ptr, i32, i64, i64, ptr, ...) @H5E_printf_stack(ptr noundef @.str.1, ptr noundef @__func__.H5AC_proxy_entry_remove_child, i32 noundef 354, i64 noundef %28, i64 noundef %29, ptr noundef @.str.2)
  br label %31

31:                                               ; preds = %27
  br label %32

32:                                               ; preds = %31
  store i8 1, ptr %6, align 1, !tbaa !9
  %33 = load i8, ptr %6, align 1, !tbaa !9, !range !11, !noundef !12
  %34 = trunc i8 %33 to i1
  %35 = zext i1 %34 to i8
  store i8 %35, ptr %6, align 1, !tbaa !9
  br label %36

36:                                               ; preds = %32
  br label %37

37:                                               ; preds = %36
  br label %38

38:                                               ; preds = %37
  store i32 -1, ptr %5, align 4, !tbaa !17
  br label %172

39:                                               ; No predecessors!
  br label %40

40:                                               ; preds = %39
  br label %41

41:                                               ; preds = %40
  br label %42

42:                                               ; preds = %41
  br label %43

43:                                               ; preds = %42, %21
  br label %44

44:                                               ; preds = %43, %13
  %45 = load i8, ptr @H5AC_init_g, align 1, !tbaa !9, !range !11, !noundef !12
  %46 = trunc i8 %45 to i1
  br i1 %46, label %51, label %47

47:                                               ; preds = %44
  %48 = load i8, ptr @H5_libterm_g, align 1, !tbaa !9, !range !11, !noundef !12
  %49 = trunc i8 %48 to i1
  %50 = xor i1 %49, true
  br label %51

51:                                               ; preds = %47, %44
  %52 = phi i1 [ true, %44 ], [ %50, %47 ]
  %53 = xor i1 %52, true
  %54 = xor i1 %53, true
  %55 = zext i1 %54 to i32
  %56 = sext i32 %55 to i64
  %57 = call i64 @llvm.expect.i64(i64 %56, i64 1)
  %58 = icmp ne i64 %57, 0
  br i1 %58, label %59, label %173

59:                                               ; preds = %51
  %60 = load ptr, ptr %3, align 8, !tbaa !19
  %61 = load ptr, ptr %4, align 8, !tbaa !3
  %62 = call i32 @H5AC_destroy_flush_dependency(ptr noundef %60, ptr noundef %61)
  %63 = icmp slt i32 %62, 0
  br i1 %63, label %64, label %83

64:                                               ; preds = %59
  br label %65

65:                                               ; preds = %64
  br label %66

66:                                               ; preds = %65
  br label %67

67:                                               ; preds = %66
  %68 = load i64, ptr @H5E_CACHE_g, align 8, !tbaa !13
  %69 = load i64, ptr @H5E_CANTUNDEPEND_g, align 8, !tbaa !13
  %70 = call i32 (ptr, ptr, i32, i64, i64, ptr, ...) @H5E_printf_stack(ptr noundef @.str.1, ptr noundef @__func__.H5AC_proxy_entry_remove_child, i32 noundef 362, i64 noundef %68, i64 noundef %69, ptr noundef @.str.10)
  br label %71

71:                                               ; preds = %67
  br label %72

72:                                               ; preds = %71
  store i8 1, ptr %6, align 1, !tbaa !9
  %73 = load i8, ptr %6, align 1, !tbaa !9, !range !11, !noundef !12
  %74 = trunc i8 %73 to i1
  %75 = zext i1 %74 to i8
  store i8 %75, ptr %6, align 1, !tbaa !9
  br label %76

76:                                               ; preds = %72
  br label %77

77:                                               ; preds = %76
  br label %78

78:                                               ; preds = %77
  store i32 -1, ptr %5, align 4, !tbaa !17
  br label %172

79:                                               ; No predecessors!
  br label %80

80:                                               ; preds = %79
  br label %81

81:                                               ; preds = %80
  br label %82

82:                                               ; preds = %81
  br label %83

83:                                               ; preds = %82, %59
  %84 = load ptr, ptr %3, align 8, !tbaa !19
  %85 = getelementptr inbounds nuw %struct.H5AC_proxy_entry_t, ptr %84, i32 0, i32 3
  %86 = load i64, ptr %85, align 8, !tbaa !34
  %87 = add i64 %86, -1
  store i64 %87, ptr %85, align 8, !tbaa !34
  %88 = load ptr, ptr %3, align 8, !tbaa !19
  %89 = getelementptr inbounds nuw %struct.H5AC_proxy_entry_t, ptr %88, i32 0, i32 3
  %90 = load i64, ptr %89, align 8, !tbaa !34
  %91 = icmp eq i64 0, %90
  br i1 %91, label %92, label %171

92:                                               ; preds = %83
  %93 = load ptr, ptr %3, align 8, !tbaa !19
  %94 = getelementptr inbounds nuw %struct.H5AC_proxy_entry_t, ptr %93, i32 0, i32 2
  %95 = load ptr, ptr %94, align 8, !tbaa !33
  %96 = icmp ne ptr %95, null
  br i1 %96, label %97, label %124

97:                                               ; preds = %92
  %98 = load ptr, ptr %3, align 8, !tbaa !19
  %99 = getelementptr inbounds nuw %struct.H5AC_proxy_entry_t, ptr %98, i32 0, i32 2
  %100 = load ptr, ptr %99, align 8, !tbaa !33
  %101 = load ptr, ptr %3, align 8, !tbaa !19
  %102 = call i32 @H5SL_iterate(ptr noundef %100, ptr noundef @H5AC__proxy_entry_remove_child_cb, ptr noundef %101)
  %103 = icmp slt i32 %102, 0
  br i1 %103, label %104, label %123

104:                                              ; preds = %97
  br label %105

105:                                              ; preds = %104
  br label %106

106:                                              ; preds = %105
  br label %107

107:                                              ; preds = %106
  %108 = load i64, ptr @H5E_CACHE_g, align 8, !tbaa !13
  %109 = load i64, ptr @H5E_BADITER_g, align 8, !tbaa !13
  %110 = call i32 (ptr, ptr, i32, i64, i64, ptr, ...) @H5E_printf_stack(ptr noundef @.str.1, ptr noundef @__func__.H5AC_proxy_entry_remove_child, i32 noundef 373, i64 noundef %108, i64 noundef %109, ptr noundef @.str.14)
  br label %111

111:                                              ; preds = %107
  br label %112

112:                                              ; preds = %111
  store i8 1, ptr %6, align 1, !tbaa !9
  %113 = load i8, ptr %6, align 1, !tbaa !9, !range !11, !noundef !12
  %114 = trunc i8 %113 to i1
  %115 = zext i1 %114 to i8
  store i8 %115, ptr %6, align 1, !tbaa !9
  br label %116

116:                                              ; preds = %112
  br label %117

117:                                              ; preds = %116
  br label %118

118:                                              ; preds = %117
  store i32 -1, ptr %5, align 4, !tbaa !17
  br label %172

119:                                              ; No predecessors!
  br label %120

120:                                              ; preds = %119
  br label %121

121:                                              ; preds = %120
  br label %122

122:                                              ; preds = %121
  br label %123

123:                                              ; preds = %122, %97
  br label %124

124:                                              ; preds = %123, %92
  %125 = load ptr, ptr %3, align 8, !tbaa !19
  %126 = call i32 @H5AC_unpin_entry(ptr noundef %125)
  %127 = icmp slt i32 %126, 0
  br i1 %127, label %128, label %147

128:                                              ; preds = %124
  br label %129

129:                                              ; preds = %128
  br label %130

130:                                              ; preds = %129
  br label %131

131:                                              ; preds = %130
  %132 = load i64, ptr @H5E_CACHE_g, align 8, !tbaa !13
  %133 = load i64, ptr @H5E_CANTUNPIN_g, align 8, !tbaa !13
  %134 = call i32 (ptr, ptr, i32, i64, i64, ptr, ...) @H5E_printf_stack(ptr noundef @.str.1, ptr noundef @__func__.H5AC_proxy_entry_remove_child, i32 noundef 377, i64 noundef %132, i64 noundef %133, ptr noundef @.str.15)
  br label %135

135:                                              ; preds = %131
  br label %136

136:                                              ; preds = %135
  store i8 1, ptr %6, align 1, !tbaa !9
  %137 = load i8, ptr %6, align 1, !tbaa !9, !range !11, !noundef !12
  %138 = trunc i8 %137 to i1
  %139 = zext i1 %138 to i8
  store i8 %139, ptr %6, align 1, !tbaa !9
  br label %140

140:                                              ; preds = %136
  br label %141

141:                                              ; preds = %140
  br label %142

142:                                              ; preds = %141
  store i32 -1, ptr %5, align 4, !tbaa !17
  br label %172

143:                                              ; No predecessors!
  br label %144

144:                                              ; preds = %143
  br label %145

145:                                              ; preds = %144
  br label %146

146:                                              ; preds = %145
  br label %147

147:                                              ; preds = %146, %124
  %148 = load ptr, ptr %3, align 8, !tbaa !19
  %149 = call i32 @H5AC_remove_entry(ptr noundef %148)
  %150 = icmp slt i32 %149, 0
  br i1 %150, label %151, label %170

151:                                              ; preds = %147
  br label %152

152:                                              ; preds = %151
  br label %153

153:                                              ; preds = %152
  br label %154

154:                                              ; preds = %153
  %155 = load i64, ptr @H5E_CACHE_g, align 8, !tbaa !13
  %156 = load i64, ptr @H5E_CANTREMOVE_g, align 8, !tbaa !13
  %157 = call i32 (ptr, ptr, i32, i64, i64, ptr, ...) @H5E_printf_stack(ptr noundef @.str.1, ptr noundef @__func__.H5AC_proxy_entry_remove_child, i32 noundef 381, i64 noundef %155, i64 noundef %156, ptr noundef @.str.16)
  br label %158

158:                                              ; preds = %154
  br label %159

159:                                              ; preds = %158
  store i8 1, ptr %6, align 1, !tbaa !9
  %160 = load i8, ptr %6, align 1, !tbaa !9, !range !11, !noundef !12
  %161 = trunc i8 %160 to i1
  %162 = zext i1 %161 to i8
  store i8 %162, ptr %6, align 1, !tbaa !9
  br label %163

163:                                              ; preds = %159
  br label %164

164:                                              ; preds = %163
  br label %165

165:                                              ; preds = %164
  store i32 -1, ptr %5, align 4, !tbaa !17
  br label %172

166:                                              ; No predecessors!
  br label %167

167:                                              ; preds = %166
  br label %168

168:                                              ; preds = %167
  br label %169

169:                                              ; preds = %168
  br label %170

170:                                              ; preds = %169, %147
  br label %171

171:                                              ; preds = %170, %83
  br label %172

172:                                              ; preds = %171, %165, %142, %118, %78, %38
  br label %173

173:                                              ; preds = %172, %51
  %174 = load i32, ptr %5, align 4, !tbaa !17
  call void @llvm.lifetime.end.p0(i64 1, ptr %6) #4
  call void @llvm.lifetime.end.p0(i64 4, ptr %5) #4
  ret i32 %174
}