; Function Attrs: nounwind uwtable
define range(i32 -1, 1) i32 @H5AC_proxy_entry_remove_child(ptr noundef %0, ptr noundef %1) local_unnamed_addr #1 {
  %3 = load i8, ptr @H5AC_init_g, align 1, !tbaa !3, !range !7, !noundef !8
  %4 = trunc nuw i8 %3 to i1
  %5 = load i8, ptr @H5_libterm_g, align 1, !range !7
  %6 = trunc nuw i8 %5 to i1
  %7 = select i1 %4, i1 true, i1 %6
  br i1 %7, label %15, label %8, !prof !9

8:                                                ; preds = %2
  store i8 1, ptr @H5AC_init_g, align 1, !tbaa !3
  %9 = tail call i32 @H5AC__init_package() #3
  %10 = icmp slt i32 %9, 0
  br i1 %10, label %11, label %._crit_edge

._crit_edge:                                      ; preds = %8
  %.pre = load i8, ptr @H5AC_init_g, align 1, !tbaa !3, !range !7
  %.pre15 = load i8, ptr @H5_libterm_g, align 1, !range !7
  %.pre16 = trunc nuw i8 %.pre to i1
  %.pre17 = trunc nuw i8 %.pre15 to i1
  br label %15

11:                                               ; preds = %8
  store i8 0, ptr @H5AC_init_g, align 1, !tbaa !3
  %12 = load i64, ptr @H5E_FUNC_g, align 8, !tbaa !10
  %13 = load i64, ptr @H5E_CANTINIT_g, align 8, !tbaa !10
  %14 = tail call i32 (ptr, ptr, i32, i64, i64, ptr, ...) @H5E_printf_stack(ptr noundef nonnull @.str.1, ptr noundef nonnull @__func__.H5AC_proxy_entry_remove_child, i32 noundef 354, i64 noundef %12, i64 noundef %13, ptr noundef nonnull @.str.2) #3
  br label %54

15:                                               ; preds = %._crit_edge, %2
  %.pre-phi18 = phi i1 [ %.pre17, %._crit_edge ], [ %6, %2 ]
  %.pre-phi = phi i1 [ %.pre16, %._crit_edge ], [ %4, %2 ]
  %16 = xor i1 %.pre-phi18, true
  %17 = select i1 %.pre-phi, i1 true, i1 %16
  br i1 %17, label %18, label %54, !prof !9

18:                                               ; preds = %15
  %19 = tail call i32 @H5AC_destroy_flush_dependency(ptr noundef %0, ptr noundef %1) #3
  %20 = icmp slt i32 %19, 0
  br i1 %20, label %21, label %25

21:                                               ; preds = %18
  %22 = load i64, ptr @H5E_CACHE_g, align 8, !tbaa !10
  %23 = load i64, ptr @H5E_CANTUNDEPEND_g, align 8, !tbaa !10
  %24 = tail call i32 (ptr, ptr, i32, i64, i64, ptr, ...) @H5E_printf_stack(ptr noundef nonnull @.str.1, ptr noundef nonnull @__func__.H5AC_proxy_entry_remove_child, i32 noundef 362, i64 noundef %22, i64 noundef %23, ptr noundef nonnull @.str.10) #3
  br label %54

25:                                               ; preds = %18
  %26 = getelementptr inbounds nuw i8, ptr %0, i64 264
  %27 = load i64, ptr %26, align 8, !tbaa !27
  %28 = add i64 %27, -1
  store i64 %28, ptr %26, align 8, !tbaa !27
  %29 = icmp eq i64 %28, 0
  br i1 %29, label %30, label %54

30:                                               ; preds = %25
  %31 = getelementptr inbounds nuw i8, ptr %0, i64 256
  %32 = load ptr, ptr %31, align 8, !tbaa !26
  %.not = icmp eq ptr %32, null
  br i1 %.not, label %40, label %33

33:                                               ; preds = %30
  %34 = tail call i32 @H5SL_iterate(ptr noundef nonnull %32, ptr noundef nonnull @H5AC__proxy_entry_remove_child_cb, ptr noundef nonnull %0) #3
  %35 = icmp slt i32 %34, 0
  br i1 %35, label %36, label %40

36:                                               ; preds = %33
  %37 = load i64, ptr @H5E_CACHE_g, align 8, !tbaa !10
  %38 = load i64, ptr @H5E_BADITER_g, align 8, !tbaa !10
  %39 = tail call i32 (ptr, ptr, i32, i64, i64, ptr, ...) @H5E_printf_stack(ptr noundef nonnull @.str.1, ptr noundef nonnull @__func__.H5AC_proxy_entry_remove_child, i32 noundef 373, i64 noundef %37, i64 noundef %38, ptr noundef nonnull @.str.14) #3
  br label %54

40:                                               ; preds = %33, %30
  %41 = tail call i32 @H5AC_unpin_entry(ptr noundef nonnull %0) #3
  %42 = icmp slt i32 %41, 0
  br i1 %42, label %43, label %47

43:                                               ; preds = %40
  %44 = load i64, ptr @H5E_CACHE_g, align 8, !tbaa !10
  %45 = load i64, ptr @H5E_CANTUNPIN_g, align 8, !tbaa !10
  %46 = tail call i32 (ptr, ptr, i32, i64, i64, ptr, ...) @H5E_printf_stack(ptr noundef nonnull @.str.1, ptr noundef nonnull @__func__.H5AC_proxy_entry_remove_child, i32 noundef 377, i64 noundef %44, i64 noundef %45, ptr noundef nonnull @.str.15) #3
  br label %54

47:                                               ; preds = %40
  %48 = tail call i32 @H5AC_remove_entry(ptr noundef nonnull %0) #3
  %49 = icmp slt i32 %48, 0
  br i1 %49, label %50, label %54

50:                                               ; preds = %47
  %51 = load i64, ptr @H5E_CACHE_g, align 8, !tbaa !10
  %52 = load i64, ptr @H5E_CANTREMOVE_g, align 8, !tbaa !10
  %53 = tail call i32 (ptr, ptr, i32, i64, i64, ptr, ...) @H5E_printf_stack(ptr noundef nonnull @.str.1, ptr noundef nonnull @__func__.H5AC_proxy_entry_remove_child, i32 noundef 381, i64 noundef %51, i64 noundef %52, ptr noundef nonnull @.str.16) #3
  br label %54

54:                                               ; preds = %11, %21, %36, %43, %50, %47, %25, %15
  %.0 = phi i32 [ -1, %11 ], [ -1, %21 ], [ -1, %36 ], [ -1, %43 ], [ -1, %50 ], [ 0, %47 ], [ 0, %25 ], [ 0, %15 ]
  ret i32 %.0
}